target datalayout = "e-m:e-p270:32:32-p271:32:32-p272:64:64-i64:64-i128:128-f80:128-n8:16:32:64-S128"
target triple = "x86_64-pc-linux-gnu"

%struct.SDL_x11Prop = type { ptr, i32, i32, i64 }

@X11_XGetWindowProperty = external global ptr, align 8
@X11_XFree = external global ptr, align 8

; Function Attrs: nounwind uwtable
define internal void @X11_ReadProperty(ptr noundef %0, ptr noundef %1, i64 noundef %2, i64 noundef %3) #0 {
  %5 = alloca ptr, align 8
  %6 = alloca ptr, align 8
  %7 = alloca i64, align 8
  %8 = alloca i64, align 8
  %9 = alloca ptr, align 8
  %10 = alloca i64, align 8
  %11 = alloca i32, align 4
  %12 = alloca i64, align 8
  %13 = alloca i64, align 8
  %14 = alloca i32, align 4
  store ptr %0, ptr %5, align 8
  store ptr %1, ptr %6, align 8
  store i64 %2, ptr %7, align 8
  store i64 %3, ptr %8, align 8
  call void @llvm.lifetime.start.p0(i64 8, ptr %9) #7
  store ptr null, ptr %9, align 8
  call void @llvm.lifetime.start.p0(i64 8, ptr %10) #7
  call void @llvm.lifetime.start.p0(i64 4, ptr %11) #7
  call void @llvm.lifetime.start.p0(i64 8, ptr %12) #7
  call void @llvm.lifetime.start.p0(i64 8, ptr %13) #7
  call void @llvm.lifetime.start.p0(i64 4, ptr %14) #7
  store i32 0, ptr %14, align 4
  br label %15

15:                                               ; preds = %35, %4
  %16 = load ptr, ptr %9, align 8
  %17 = icmp ne ptr %16, null
  br i1 %17, label %18, label %22

18:                                               ; preds = %15
  %19 = load ptr, ptr @X11_XFree, align 8
  %20 = load ptr, ptr %9, align 8
  %21 = call i32 %19(ptr noundef %20)
  br label %22

22:                                               ; preds = %18, %15
  %23 = load ptr, ptr @X11_XGetWindowProperty, align 8
  %24 = load ptr, ptr %6, align 8
  %25 = load i64, ptr %7, align 8
  %26 = load i64, ptr %8, align 8
  %27 = load i32, ptr %14, align 4
  %28 = sext i32 %27 to i64
  %29 = call i32 %23(ptr noundef %24, i64 noundef %25, i64 noundef %26, i64 noundef 0, i64 noundef %28, i32 noundef 0, i64 noundef 0, ptr noundef %10, ptr noundef %11, ptr noundef %12, ptr noundef %13, ptr noundef %9)
  %30 = load i64, ptr %13, align 8
  %31 = load i32, ptr %14, align 4
  %32 = sext i32 %31 to i64
  %33 = add i64 %32, %30
  %34 = trunc i64 %33 to i32
  store i32 %34, ptr %14, align 4
  br label %35

35:                                               ; preds = %22
  %36 = load i64, ptr %13, align 8
  %37 = icmp ne i64 %36, 0
  br i1 %37, label %15, label %38, !llvm.loop !20

38:                                               ; preds = %35
  %39 = load ptr, ptr %9, align 8
  %40 = load ptr, ptr %5, align 8
  %41 = getelementptr inbounds nuw %struct.SDL_x11Prop, ptr %40, i32 0, i32 0
  store ptr %39, ptr %41, align 8
  %42 = load i32, ptr %11, align 4
  %43 = load ptr, ptr %5, align 8
  %44 = getelementptr inbounds nuw %struct.SDL_x11Prop, ptr %43, i32 0, i32 1
  store i32 %42, ptr %44, align 8
  %45 = load i64, ptr %12, align 8
  %46 = trunc i64 %45 to i32
  %47 = load ptr, ptr %5, align 8
  %48 = getelementptr inbounds nuw %struct.SDL_x11Prop, ptr %47, i32 0, i32 2
  store i32 %46, ptr %48, align 4
  %49 = load i64, ptr %10, align 8
  %50 = load ptr, ptr %5, align 8
  %51 = getelementptr inbounds nuw %struct.SDL_x11Prop, ptr %50, i32 0, i32 3
  store i64 %49, ptr %51, align 8
  call void @llvm.lifetime.end.p0(i64 4, ptr %14) #7
  call void @llvm.lifetime.end.p0(i64 8, ptr %13) #7
  call void @llvm.lifetime.end.p0(i64 8, ptr %12) #7
  call void @llvm.lifetime.end.p0(i64 4, ptr %11) #7
  call void @llvm.lifetime.end.p0(i64 8, ptr %10) #7
  call void @llvm.lifetime.end.p0(i64 8, ptr %9) #7
  ret void
}