; Function Attrs: nounwind uwtable
define internal fastcc void @X11_ReadProperty(ptr noundef nonnull writeonly captures(none) %0, ptr noundef %1, i64 noundef %2, i64 noundef %3) unnamed_addr #1 {
  %5 = alloca ptr, align 8
  %6 = alloca i64, align 8
  %7 = alloca i32, align 4
  %8 = alloca i64, align 8
  %9 = alloca i64, align 8
  call void @llvm.lifetime.start.p0(i64 8, ptr nonnull %5) #12
  store ptr null, ptr %5, align 8
  call void @llvm.lifetime.start.p0(i64 8, ptr nonnull %6) #12
  call void @llvm.lifetime.start.p0(i64 4, ptr nonnull %7) #12
  call void @llvm.lifetime.start.p0(i64 8, ptr nonnull %8) #12
  call void @llvm.lifetime.start.p0(i64 8, ptr nonnull %9) #12
  br label %11

thread-pre-split:                                 ; preds = %16
  %10 = add i64 %20, %18
  %.pr = load ptr, ptr %5, align 8
  br label %11

11:                                               ; preds = %thread-pre-split, %4
  %12 = phi ptr [ %.pr, %thread-pre-split ], [ null, %4 ]
  %.0 = phi i64 [ %10, %thread-pre-split ], [ 0, %4 ]
  %.not = icmp eq ptr %12, null
  br i1 %.not, label %16, label %13

13:                                               ; preds = %11
  %14 = load ptr, ptr @X11_XFree, align 8
  %15 = call i32 %14(ptr noundef nonnull %12) #12
  br label %16

16:                                               ; preds = %13, %11
  %17 = load ptr, ptr @X11_XGetWindowProperty, align 8
  %sext = shl i64 %.0, 32
  %18 = ashr exact i64 %sext, 32
  %19 = call i32 %17(ptr noundef %1, i64 noundef %2, i64 noundef %3, i64 noundef 0, i64 noundef %18, i32 noundef 0, i64 noundef 0, ptr noundef nonnull %6, ptr noundef nonnull %7, ptr noundef nonnull %8, ptr noundef nonnull %9, ptr noundef nonnull %5) #12
  %20 = load i64, ptr %9, align 8
  %.not9 = icmp eq i64 %20, 0
  br i1 %.not9, label %21, label %thread-pre-split, !llvm.loop !19

21:                                               ; preds = %16
  %22 = load ptr, ptr %5, align 8
  store ptr %22, ptr %0, align 8
  %23 = load i32, ptr %7, align 4
  %24 = getelementptr inbounds nuw i8, ptr %0, i64 8
  store i32 %23, ptr %24, align 8
  %25 = load i64, ptr %8, align 8
  %26 = trunc i64 %25 to i32
  %27 = getelementptr inbounds nuw i8, ptr %0, i64 12
  store i32 %26, ptr %27, align 4
  %28 = load i64, ptr %6, align 8
  %29 = getelementptr inbounds nuw i8, ptr %0, i64 16
  store i64 %28, ptr %29, align 8
  call void @llvm.lifetime.end.p0(i64 8, ptr nonnull %9) #12
  call void @llvm.lifetime.end.p0(i64 8, ptr nonnull %8) #12
  call void @llvm.lifetime.end.p0(i64 4, ptr nonnull %7) #12
  call void @llvm.lifetime.end.p0(i64 8, ptr nonnull %6) #12
  call void @llvm.lifetime.end.p0(i64 8, ptr nonnull %5) #12
  ret void
}